target datalayout = "e-m:e-p270:32:32-p271:32:32-p272:64:64-i64:64-i128:128-f80:128-n8:16:32:64-S128"
target triple = "x86_64-pc-linux-gnu"

; Function Attrs: nounwind uwtable
define ptr @my_strdup(ptr noundef %0) #0 {
  %2 = alloca ptr, align 8
  %3 = alloca ptr, align 8
  %4 = alloca ptr, align 8
  %5 = alloca i32, align 4
  store ptr %0, ptr %3, align 8, !tbaa !48
  call void @llvm.lifetime.start.p0(i64 8, ptr %4) #12
  %6 = load ptr, ptr %3, align 8, !tbaa !48
  %7 = call i64 @strlen(ptr noundef %6) #13
  %8 = add i64 %7, 1
  %9 = call noalias ptr @malloc(i64 noundef %8) #14
  store ptr %9, ptr %4, align 8, !tbaa !48
  %10 = load ptr, ptr %4, align 8, !tbaa !48
  %11 = icmp ne ptr %10, null
  br i1 %11, label %13, label %12

12:                                               ; preds = %1
  store ptr null, ptr %2, align 8
  store i32 1, ptr %5, align 4
  br label %18

13:                                               ; preds = %1
  %14 = load ptr, ptr %4, align 8, !tbaa !48
  %15 = load ptr, ptr %3, align 8, !tbaa !48
  %16 = call ptr @strcpy(ptr noundef %14, ptr noundef %15) #12
  %17 = load ptr, ptr %4, align 8, !tbaa !48
  store ptr %17, ptr %2, align 8
  store i32 1, ptr %5, align 4
  br label %18

18:                                               ; preds = %13, %12
  call void @llvm.lifetime.end.p0(i64 8, ptr %4) #12
  %19 = load ptr, ptr %2, align 8
  ret ptr %19
}