; Function Attrs: mustprogress nofree nounwind willreturn uwtable
define noundef ptr @my_strdup(ptr noundef readonly captures(none) %0) local_unnamed_addr #16 {
  %2 = tail call i64 @strlen(ptr noundef nonnull dereferenceable(1) %0) #35
  %3 = add i64 %2, 1
  %4 = tail call noalias ptr @malloc(i64 noundef %3) #36
  %.not = icmp eq ptr %4, null
  br i1 %.not, label %7, label %5

5:                                                ; preds = %1
  %6 = tail call ptr @strcpy(ptr noundef nonnull dereferenceable(1) %4, ptr noundef nonnull dereferenceable(1) %0) #34
  br label %7

7:                                                ; preds = %1, %5
  ret ptr %4
}